target datalayout = "e-m:e-p270:32:32-p271:32:32-p272:64:64-i64:64-i128:128-f80:128-n8:16:32:64-S128"
target triple = "x86_64-pc-linux-gnu"

%struct.sinfo_parameters = type { i8, ptr, i32, ptr, i32, i8, i8, i8, i8, i8, i8, i8, i8, i8, i8, i8, i8, i8, i8, i8, i8, i8, i64, ptr, ptr, ptr, ptr, ptr, ptr, ptr, i32, i32, i32, i32, ptr, ptr, ptr, i8, ptr }
%union.pthread_mutex_t = type { %struct.__pthread_mutex_s }
%struct.__pthread_mutex_s = type { i32, i32, i32, i32, i32, i16, i16, %struct.__pthread_internal_list }
%struct.__pthread_internal_list = type { ptr, ptr }
%union.pthread_cond_t = type { %struct.__pthread_cond_s }
%struct.__pthread_cond_s = type { %union.__atomic_wide_counter, %union.__atomic_wide_counter, [2 x i32], [2 x i32], i32, i32, [2 x i32] }
%union.__atomic_wide_counter = type { i64 }
%struct.build_part_info = type { ptr, i16, ptr, ptr }
%struct.partition_info = type { ptr, ptr, ptr, ptr, ptr, ptr, ptr, i16, i32, i64, i32, ptr, ptr, i32, i32, ptr, ptr, i32, i32, i64, i32, i16, i32, i32, ptr, ptr, ptr, ptr, i16, i16, i16, i16, ptr, i16, i16, i32, i16, i32, i32, ptr }
%struct.node_info_msg = type { i64, i32, ptr }
%struct.node_info = type { ptr, ptr, i16, i64, ptr, i16, i16, i32, i32, i64, i16, i16, ptr, ptr, ptr, ptr, ptr, ptr, ptr, ptr, ptr, ptr, i64, ptr, i64, ptr, i32, ptr, ptr, i32, ptr, i32, ptr, i16, i64, i16, ptr, ptr, ptr, i64, i32, i64, ptr, ptr, i64, i16, i16, i32, i32, ptr, ptr }

@params = dso_local global %struct.sinfo_parameters zeroinitializer, align 8
@sinfo_list_mutex = internal global %union.pthread_mutex_t zeroinitializer, align 8
@.str.1 = private unnamed_addr constant [29 x i8] c"%s: pthread_mutex_lock(): %m\00", align 1
@__func__._build_part_info = private unnamed_addr constant [17 x i8] c"_build_part_info\00", align 1
@.str.2 = private unnamed_addr constant [31 x i8] c"%s: pthread_mutex_unlock(): %m\00", align 1
@sinfo_cnt_mutex = internal global %union.pthread_mutex_t zeroinitializer, align 8
@sinfo_cnt = internal global i32 0, align 4
@.str.3 = private unnamed_addr constant [20 x i8] c"sinfo_cnt underflow\00", align 1
@sinfo_cnt_cond = internal global %union.pthread_cond_t zeroinitializer, align 8
@.str.4 = private unnamed_addr constant [39 x i8] c"%s:%d %s: pthread_cond_broadcast(): %m\00", align 1
@.str.5 = private unnamed_addr constant [8 x i8] c"sinfo.c\00", align 1

; Function Attrs: nounwind uwtable
define internal zeroext i1 @_serial_part_data() #0 {
  %1 = alloca i1, align 1
  %2 = load i8, ptr getelementptr inbounds nuw (%struct.sinfo_parameters, ptr @params, i32 0, i32 20), align 1, !range !8, !noundef !9
  %3 = trunc i8 %2 to i1
  br i1 %3, label %4, label %5

4:                                                ; preds = %0
  store i1 true, ptr %1, align 1
  br label %11

5:                                                ; preds = %0
  %6 = load i64, ptr getelementptr inbounds nuw (%struct.sinfo_parameters, ptr @params, i32 0, i32 22), align 8
  %7 = and i64 %6, 8388608
  %8 = icmp ne i64 %7, 0
  br i1 %8, label %9, label %10

9:                                                ; preds = %5
  store i1 false, ptr %1, align 1
  br label %11

10:                                               ; preds = %5
  store i1 true, ptr %1, align 1
  br label %11

11:                                               ; preds = %10, %9, %4
  %12 = load i1, ptr %1, align 1
  ret i1 %12
}

; Function Attrs: nounwind uwtable
define dso_local ptr @_build_part_info(ptr noundef %0) #0 {
  %2 = alloca ptr, align 8
  %3 = alloca ptr, align 8
  %4 = alloca ptr, align 8
  %5 = alloca ptr, align 8
  %6 = alloca ptr, align 8
  %7 = alloca ptr, align 8
  %8 = alloca i16, align 2
  %9 = alloca i32, align 4
  %10 = alloca i32, align 4
  %11 = alloca i32, align 4
  %12 = alloca i32, align 4
  %13 = alloca i32, align 4
  %14 = alloca i32, align 4
  %15 = alloca i32, align 4
  store ptr %0, ptr %2, align 8
  call void @llvm.lifetime.start.p0(i64 8, ptr %3) #9
  call void @llvm.lifetime.start.p0(i64 8, ptr %4) #9
  call void @llvm.lifetime.start.p0(i64 8, ptr %5) #9
  call void @llvm.lifetime.start.p0(i64 8, ptr %6) #9
  call void @llvm.lifetime.start.p0(i64 8, ptr %7) #9
  store ptr null, ptr %7, align 8
  call void @llvm.lifetime.start.p0(i64 2, ptr %8) #9
  call void @llvm.lifetime.start.p0(i64 4, ptr %9) #9
  store i32 0, ptr %9, align 4
  %16 = call zeroext i1 @_serial_part_data()
  br i1 %16, label %17, label %28

17:                                               ; preds = %1
  br label %18

18:                                               ; preds = %17
  call void @llvm.lifetime.start.p0(i64 4, ptr %10) #9
  %19 = call i32 @pthread_mutex_lock(ptr noundef @sinfo_list_mutex) #9
  store i32 %19, ptr %10, align 4
  %20 = load i32, ptr %10, align 4
  %21 = icmp ne i32 %20, 0
  br i1 %21, label %22, label %25

22:                                               ; preds = %18
  %23 = load i32, ptr %10, align 4
  %24 = call ptr @__errno_location() #11
  store i32 %23, ptr %24, align 4
  call void (ptr, ...) @fatal_abort(ptr noundef @.str.1, ptr noundef @__func__._build_part_info) #12
  unreachable

25:                                               ; preds = %18
  call void @llvm.lifetime.end.p0(i64 4, ptr %10) #9
  br label %26

26:                                               ; preds = %25
  br label %27

27:                                               ; preds = %26
  br label %28

28:                                               ; preds = %27, %1
  %29 = load ptr, ptr %2, align 8
  store ptr %29, ptr %3, align 8
  %30 = load ptr, ptr %3, align 8
  %31 = getelementptr inbounds nuw %struct.build_part_info, ptr %30, i32 0, i32 3
  %32 = load ptr, ptr %31, align 8
  store ptr %32, ptr %4, align 8
  %33 = load ptr, ptr %3, align 8
  %34 = getelementptr inbounds nuw %struct.build_part_info, ptr %33, i32 0, i32 1
  %35 = load i16, ptr %34, align 8
  store i16 %35, ptr %8, align 2
  %36 = load ptr, ptr %3, align 8
  %37 = getelementptr inbounds nuw %struct.build_part_info, ptr %36, i32 0, i32 2
  %38 = load ptr, ptr %37, align 8
  store ptr %38, ptr %5, align 8
  %39 = load ptr, ptr %3, align 8
  %40 = getelementptr inbounds nuw %struct.build_part_info, ptr %39, i32 0, i32 0
  %41 = load ptr, ptr %40, align 8
  store ptr %41, ptr %6, align 8
  br label %42

42:                                               ; preds = %98, %28
  %43 = load ptr, ptr %5, align 8
  %44 = getelementptr inbounds nuw %struct.partition_info, ptr %43, i32 0, i32 25
  %45 = load ptr, ptr %44, align 8
  %46 = load i32, ptr %9, align 4
  %47 = sext i32 %46 to i64
  %48 = getelementptr inbounds i32, ptr %45, i64 %47
  %49 = load i32, ptr %48, align 4
  %50 = icmp sge i32 %49, 0
  br i1 %50, label %51, label %101

51:                                               ; preds = %42
  call void @llvm.lifetime.start.p0(i64 4, ptr %11) #9
  store i32 0, ptr %11, align 4
  %52 = load ptr, ptr %5, align 8
  %53 = getelementptr inbounds nuw %struct.partition_info, ptr %52, i32 0, i32 25
  %54 = load ptr, ptr %53, align 8
  %55 = load i32, ptr %9, align 4
  %56 = sext i32 %55 to i64
  %57 = getelementptr inbounds i32, ptr %54, i64 %56
  %58 = load i32, ptr %57, align 4
  store i32 %58, ptr %11, align 4
  br label %59

59:                                               ; preds = %95, %51
  %60 = load i32, ptr %11, align 4
  %61 = load ptr, ptr %5, align 8
  %62 = getelementptr inbounds nuw %struct.partition_info, ptr %61, i32 0, i32 25
  %63 = load ptr, ptr %62, align 8
  %64 = load i32, ptr %9, align 4
  %65 = add nsw i32 %64, 1
  %66 = sext i32 %65 to i64
  %67 = getelementptr inbounds i32, ptr %63, i64 %66
  %68 = load i32, ptr %67, align 4
  %69 = icmp sle i32 %60, %68
  br i1 %69, label %70, label %98

70:                                               ; preds = %59
  %71 = load i32, ptr %11, align 4
  %72 = load ptr, ptr %6, align 8
  %73 = getelementptr inbounds nuw %struct.node_info_msg, ptr %72, i32 0, i32 1
  %74 = load i32, ptr %73, align 8
  %75 = icmp uge i32 %71, %74
  br i1 %75, label %76, label %77

76:                                               ; preds = %70
  br label %98

77:                                               ; preds = %70
  %78 = load ptr, ptr %6, align 8
  %79 = getelementptr inbounds nuw %struct.node_info_msg, ptr %78, i32 0, i32 2
  %80 = load ptr, ptr %79, align 8
  %81 = load i32, ptr %11, align 4
  %82 = sext i32 %81 to i64
  %83 = getelementptr inbounds %struct.node_info, ptr %80, i64 %82
  store ptr %83, ptr %7, align 8
  %84 = load ptr, ptr %7, align 8
  %85 = getelementptr inbounds nuw %struct.node_info, ptr %84, i32 0, i32 25
  %86 = load ptr, ptr %85, align 8
  %87 = icmp eq ptr %86, null
  br i1 %87, label %88, label %89

88:                                               ; preds = %77
  br label %95

89:                                               ; preds = %77
  %90 = load ptr, ptr %4, align 8
  %91 = load i16, ptr %8, align 2
  %92 = load ptr, ptr %5, align 8
  %93 = load ptr, ptr %7, align 8
  %94 = call i32 @_insert_node_ptr(ptr noundef %90, i16 noundef zeroext %91, ptr noundef %92, ptr noundef %93)
  br label %95

95:                                               ; preds = %89, %88
  %96 = load i32, ptr %11, align 4
  %97 = add nsw i32 %96, 1
  store i32 %97, ptr %11, align 4
  br label %59, !llvm.loop !14

98:                                               ; preds = %76, %59
  %99 = load i32, ptr %9, align 4
  %100 = add nsw i32 %99, 2
  store i32 %100, ptr %9, align 4
  call void @llvm.lifetime.end.p0(i64 4, ptr %11) #9
  br label %42, !llvm.loop !15

101:                                              ; preds = %42
  call void @slurm_xfree(ptr noundef %2)
  %102 = call zeroext i1 @_serial_part_data()
  br i1 %102, label %103, label %114

103:                                              ; preds = %101
  br label %104

104:                                              ; preds = %103
  call void @llvm.lifetime.start.p0(i64 4, ptr %12) #9
  %105 = call i32 @pthread_mutex_unlock(ptr noundef @sinfo_list_mutex) #9
  store i32 %105, ptr %12, align 4
  %106 = load i32, ptr %12, align 4
  %107 = icmp ne i32 %106, 0
  br i1 %107, label %108, label %111

108:                                              ; preds = %104
  %109 = load i32, ptr %12, align 4
  %110 = call ptr @__errno_location() #11
  store i32 %109, ptr %110, align 4
  call void (ptr, ...) @fatal_abort(ptr noundef @.str.2, ptr noundef @__func__._build_part_info) #12
  unreachable

111:                                              ; preds = %104
  call void @llvm.lifetime.end.p0(i64 4, ptr %12) #9
  br label %112

112:                                              ; preds = %111
  br label %113

113:                                              ; preds = %112
  br label %114

114:                                              ; preds = %113, %101
  br label %115

115:                                              ; preds = %114
  call void @llvm.lifetime.start.p0(i64 4, ptr %13) #9
  %116 = call i32 @pthread_mutex_lock(ptr noundef @sinfo_cnt_mutex) #9
  store i32 %116, ptr %13, align 4
  %117 = load i32, ptr %13, align 4
  %118 = icmp ne i32 %117, 0
  br i1 %118, label %119, label %122

119:                                              ; preds = %115
  %120 = load i32, ptr %13, align 4
  %121 = call ptr @__errno_location() #11
  store i32 %120, ptr %121, align 4
  call void (ptr, ...) @fatal_abort(ptr noundef @.str.1, ptr noundef @__func__._build_part_info) #12
  unreachable

122:                                              ; preds = %115
  call void @llvm.lifetime.end.p0(i64 4, ptr %13) #9
  br label %123

123:                                              ; preds = %122
  br label %124

124:                                              ; preds = %123
  %125 = load i32, ptr @sinfo_cnt, align 4
  %126 = icmp sgt i32 %125, 0
  br i1 %126, label %127, label %130

127:                                              ; preds = %124
  %128 = load i32, ptr @sinfo_cnt, align 4
  %129 = add nsw i32 %128, -1
  store i32 %129, ptr @sinfo_cnt, align 4
  br label %132

130:                                              ; preds = %124
  %131 = call i32 (ptr, ...) @error(ptr noundef @.str.3)
  store i32 0, ptr @sinfo_cnt, align 4
  br label %132

132:                                              ; preds = %130, %127
  br label %133

133:                                              ; preds = %132
  call void @llvm.lifetime.start.p0(i64 4, ptr %14) #9
  %134 = call i32 @pthread_cond_broadcast(ptr noundef @sinfo_cnt_cond) #9
  store i32 %134, ptr %14, align 4
  %135 = load i32, ptr %14, align 4
  %136 = icmp ne i32 %135, 0
  br i1 %136, label %137, label %141

137:                                              ; preds = %133
  %138 = load i32, ptr %14, align 4
  %139 = call ptr @__errno_location() #11
  store i32 %138, ptr %139, align 4
  %140 = call i32 (ptr, ...) @error(ptr noundef @.str.4, ptr noundef @.str.5, i32 noundef 560, ptr noundef @__func__._build_part_info)
  br label %141

141:                                              ; preds = %137, %133
  call void @llvm.lifetime.end.p0(i64 4, ptr %14) #9
  br label %142

142:                                              ; preds = %141
  br label %143

143:                                              ; preds = %142
  br label %144

144:                                              ; preds = %143
  call void @llvm.lifetime.start.p0(i64 4, ptr %15) #9
  %145 = call i32 @pthread_mutex_unlock(ptr noundef @sinfo_cnt_mutex) #9
  store i32 %145, ptr %15, align 4
  %146 = load i32, ptr %15, align 4
  %147 = icmp ne i32 %146, 0
  br i1 %147, label %148, label %151

148:                                              ; preds = %144
  %149 = load i32, ptr %15, align 4
  %150 = call ptr @__errno_location() #11
  store i32 %149, ptr %150, align 4
  call void (ptr, ...) @fatal_abort(ptr noundef @.str.2, ptr noundef @__func__._build_part_info) #12
  unreachable

151:                                              ; preds = %144
  call void @llvm.lifetime.end.p0(i64 4, ptr %15) #9
  br label %152

152:                                              ; preds = %151
  br label %153

153:                                              ; preds = %152
  call void @llvm.lifetime.end.p0(i64 4, ptr %9) #9
  call void @llvm.lifetime.end.p0(i64 2, ptr %8) #9
  call void @llvm.lifetime.end.p0(i64 8, ptr %7) #9
  call void @llvm.lifetime.end.p0(i64 8, ptr %6) #9
  call void @llvm.lifetime.end.p0(i64 8, ptr %5) #9
  call void @llvm.lifetime.end.p0(i64 8, ptr %4) #9
  call void @llvm.lifetime.end.p0(i64 8, ptr %3) #9
  ret ptr null
}