; Function Attrs: nounwind uwtable
define dso_local noalias noundef ptr @_build_part_info(ptr noundef %0) #5 {
  %2 = alloca ptr, align 8
  store ptr %0, ptr %2, align 8
  %3 = load i8, ptr getelementptr inbounds nuw (i8, ptr @params, i64 51), align 1, !range !8, !noundef !9
  %4 = trunc nuw i8 %3 to i1
  %5 = load i64, ptr getelementptr inbounds nuw (i8, ptr @params, i64 56), align 8
  %6 = and i64 %5, 8388608
  %.not.i = icmp eq i64 %6, 0
  %.0.i = select i1 %4, i1 true, i1 %.not.i
  br i1 %.0.i, label %7, label %11

7:                                                ; preds = %1
  %8 = tail call i32 @pthread_mutex_lock(ptr noundef nonnull @sinfo_list_mutex) #13
  %.not = icmp eq i32 %8, 0
  br i1 %.not, label %11, label %9

9:                                                ; preds = %7
  %10 = tail call ptr @__errno_location() #15
  store i32 %8, ptr %10, align 4
  tail call void (ptr, ...) @fatal_abort(ptr noundef nonnull @.str.1, ptr noundef nonnull @__func__._build_part_info) #14
  unreachable

11:                                               ; preds = %7, %1
  %12 = getelementptr inbounds nuw i8, ptr %0, i64 24
  %13 = load ptr, ptr %12, align 8
  %14 = getelementptr inbounds nuw i8, ptr %0, i64 8
  %15 = load i16, ptr %14, align 8
  %16 = getelementptr inbounds nuw i8, ptr %0, i64 16
  %17 = load ptr, ptr %16, align 8
  %18 = getelementptr inbounds nuw i8, ptr %17, i64 160
  %19 = load ptr, ptr %18, align 8
  %20 = load i32, ptr %19, align 4
  %21 = icmp sgt i32 %20, -1
  br i1 %21, label %.preheader.lr.ph, label %._crit_edge51

.preheader.lr.ph:                                 ; preds = %11
  %22 = load ptr, ptr %0, align 8
  %23 = getelementptr inbounds nuw i8, ptr %22, i64 8
  %24 = getelementptr inbounds nuw i8, ptr %22, i64 16
  br label %.preheader

.preheader:                                       ; preds = %.preheader.lr.ph, %._crit_edge
  %25 = phi ptr [ %19, %.preheader.lr.ph ], [ %48, %._crit_edge ]
  %indvars.iv53 = phi i64 [ 0, %.preheader.lr.ph ], [ %indvars.iv.next54, %._crit_edge ]
  %26 = phi i32 [ %20, %.preheader.lr.ph ], [ %50, %._crit_edge ]
  %27 = or disjoint i64 %indvars.iv53, 1
  %28 = getelementptr inbounds nuw i32, ptr %25, i64 %27
  %29 = load i32, ptr %28, align 4
  %.not4347 = icmp sgt i32 %26, %29
  br i1 %.not4347, label %._crit_edge, label %.lr.ph.preheader

.lr.ph.preheader:                                 ; preds = %.preheader
  %30 = zext nneg i32 %26 to i64
  br label %.lr.ph

.lr.ph:                                           ; preds = %.lr.ph.preheader, %42
  %31 = phi ptr [ %25, %.lr.ph.preheader ], [ %43, %42 ]
  %32 = phi ptr [ %25, %.lr.ph.preheader ], [ %44, %42 ]
  %indvars.iv = phi i64 [ %30, %.lr.ph.preheader ], [ %indvars.iv.next, %42 ]
  %33 = load i32, ptr %23, align 8
  %34 = zext i32 %33 to i64
  %.not44 = icmp samesign ult i64 %indvars.iv, %34
  br i1 %.not44, label %35, label %._crit_edge

35:                                               ; preds = %.lr.ph
  %36 = load ptr, ptr %24, align 8
  %37 = getelementptr inbounds nuw %struct.node_info, ptr %36, i64 %indvars.iv
  %38 = getelementptr inbounds nuw i8, ptr %37, i64 176
  %39 = load ptr, ptr %38, align 8
  %40 = icmp eq ptr %39, null
  br i1 %40, label %42, label %41

41:                                               ; preds = %35
  tail call fastcc void @_insert_node_ptr(ptr noundef %13, i16 noundef zeroext %15, ptr noundef nonnull %17, ptr noundef nonnull %37)
  %.pre = load ptr, ptr %18, align 8
  br label %42

42:                                               ; preds = %35, %41
  %43 = phi ptr [ %31, %35 ], [ %.pre, %41 ]
  %44 = phi ptr [ %32, %35 ], [ %.pre, %41 ]
  %indvars.iv.next = add nuw nsw i64 %indvars.iv, 1
  %45 = getelementptr inbounds nuw i32, ptr %44, i64 %27
  %46 = load i32, ptr %45, align 4
  %47 = trunc nuw i64 %indvars.iv to i32
  %.not43.not = icmp sgt i32 %46, %47
  br i1 %.not43.not, label %.lr.ph, label %._crit_edge, !llvm.loop !16

._crit_edge:                                      ; preds = %42, %.lr.ph, %.preheader
  %48 = phi ptr [ %25, %.preheader ], [ %43, %42 ], [ %31, %.lr.ph ]
  %indvars.iv.next54 = add nuw nsw i64 %indvars.iv53, 2
  %49 = getelementptr inbounds nuw i32, ptr %48, i64 %indvars.iv.next54
  %50 = load i32, ptr %49, align 4
  %51 = icmp sgt i32 %50, -1
  br i1 %51, label %.preheader, label %._crit_edge51, !llvm.loop !17

._crit_edge51:                                    ; preds = %._crit_edge, %11
  call void @slurm_xfree(ptr noundef nonnull %2) #13
  %52 = load i8, ptr getelementptr inbounds nuw (i8, ptr @params, i64 51), align 1, !range !8, !noundef !9
  %53 = trunc nuw i8 %52 to i1
  %54 = load i64, ptr getelementptr inbounds nuw (i8, ptr @params, i64 56), align 8
  %55 = and i64 %54, 8388608
  %.not.i45 = icmp eq i64 %55, 0
  %.0.i46 = select i1 %53, i1 true, i1 %.not.i45
  br i1 %.0.i46, label %56, label %60

56:                                               ; preds = %._crit_edge51
  %57 = call i32 @pthread_mutex_unlock(ptr noundef nonnull @sinfo_list_mutex) #13
  %.not39 = icmp eq i32 %57, 0
  br i1 %.not39, label %60, label %58

58:                                               ; preds = %56
  %59 = tail call ptr @__errno_location() #15
  store i32 %57, ptr %59, align 4
  call void (ptr, ...) @fatal_abort(ptr noundef nonnull @.str.2, ptr noundef nonnull @__func__._build_part_info) #14
  unreachable

60:                                               ; preds = %56, %._crit_edge51
  %61 = call i32 @pthread_mutex_lock(ptr noundef nonnull @sinfo_cnt_mutex) #13
  %.not40 = icmp eq i32 %61, 0
  br i1 %.not40, label %64, label %62

62:                                               ; preds = %60
  %63 = tail call ptr @__errno_location() #15
  store i32 %61, ptr %63, align 4
  call void (ptr, ...) @fatal_abort(ptr noundef nonnull @.str.1, ptr noundef nonnull @__func__._build_part_info) #14
  unreachable

64:                                               ; preds = %60
  %65 = load i32, ptr @sinfo_cnt, align 4
  %66 = icmp sgt i32 %65, 0
  br i1 %66, label %67, label %69

67:                                               ; preds = %64
  %68 = add nsw i32 %65, -1
  br label %71

69:                                               ; preds = %64
  %70 = call i32 (ptr, ...) @error(ptr noundef nonnull @.str.3) #13
  br label %71

71:                                               ; preds = %67, %69
  %storemerge = phi i32 [ 0, %69 ], [ %68, %67 ]
  store i32 %storemerge, ptr @sinfo_cnt, align 4
  %72 = call i32 @pthread_cond_broadcast(ptr noundef nonnull @sinfo_cnt_cond) #13
  %.not41 = icmp eq i32 %72, 0
  br i1 %.not41, label %76, label %73

73:                                               ; preds = %71
  %74 = tail call ptr @__errno_location() #15
  store i32 %72, ptr %74, align 4
  %75 = call i32 (ptr, ...) @error(ptr noundef nonnull @.str.4, ptr noundef nonnull @.str.5, i32 noundef 560, ptr noundef nonnull @__func__._build_part_info) #13
  br label %76

76:                                               ; preds = %73, %71
  %77 = call i32 @pthread_mutex_unlock(ptr noundef nonnull @sinfo_cnt_mutex) #13
  %.not42 = icmp eq i32 %77, 0
  br i1 %.not42, label %80, label %78

78:                                               ; preds = %76
  %79 = tail call ptr @__errno_location() #15
  store i32 %77, ptr %79, align 4
  call void (ptr, ...) @fatal_abort(ptr noundef nonnull @.str.2, ptr noundef nonnull @__func__._build_part_info) #14
  unreachable

80:                                               ; preds = %76
  ret ptr null
}